{
  "main_library": {
    "exported_symbols": [
      {
        "data": {
          "global": [
            "__ZN4mmkv8MLockPtr17isMLockPtrEnabledE",
            "__ZN4mmkv12g_logHandlerE",
            "_g_instanceDic",
            "_MMKVCoreVersionNumber",
            "_MMKVCoreVersionString",
            "_g_rootDir",
            "__ZN4mmkv22g_contentChangeHandlerE",
            "__ZN4mmkv17g_currentLogLevelE",
            "_g_instanceLock",
            "__ZN4mmkv17DEFAULT_MMAP_SIZEE"
          ],
          "objc_class": [
            "PodsDummy_MMKVCore"
          ],
          "weak": [
            "__ZNSt3__119piecewise_constructE"
          ]
        },
        "text": {
          "global": [
            "__ZN4mmkv4MMKV22enableCompareBeforeSetEv",
            "__ZN4mmkv10MemoryFile5msyncENS_8SyncFlagE",
            "__ZN4mmkv15copyFileContentERKNSt3__112basic_stringIcNS0_11char_traitsIcEENS0_9allocatorIcEEEES8_",
            "__ZN4mmkv19CodedInputDataCrypt9skipBytesEm",
            "__ZN4mmkv4MMKV11containsKeyEP8NSString",
            "__ZN4mmkv4MMKV23restoreAllFromDirectoryERKNSt3__112basic_stringIcNS1_11char_traitsIcEENS1_9allocatorIcEEEEPS8_",
            "__ZN4mmkv8MLockPtrC1EOS0_",
            "__ZN4mmkv4MMKV20registerErrorHandlerEPFNS_20MMKVRecoverStrategicERKNSt3__112basic_stringIcNS2_11char_traitsIcEENS2_9allocatorIcEEEENS_13MMKVErrorTypeEE",
            "__ZN4mmkv4MMKV3setEiP8NSString",
            "__ZN4mmkv4MMKV20backupAllToDirectoryERKNSt3__112basic_stringIcNS1_11char_traitsIcEENS1_9allocatorIcEEEEPS8_",
            "__ZN4mmkv10ThreadLockC2Ev",
            "__ZN4mmkv4MMKV9getUInt64EP8NSStringyPb",
            "__ZN4mmkv8AESCrypt11resetStatusERKNS_14AESCryptStatusE",
            "__ZN4mmkv19KeyValueHolderCryptC1EPKvm",
            "__ZN4mmkv8MMBufferC2EOS0_m",
            "__ZN4mmkv8FileLock4lockENS_8LockTypeE",
            "__ZN4mmkv15CodedOutputData11writeUInt32Ej",
            "__ZN4mmkv14KeyValueHolderC1Ejjj",
            "__ZN4mmkv19KeyValueHolderCryptC2EPKvm",
            "__ZN4mmkv15CodedOutputData10writeInt64Ex",
            "__ZN4mmkv11MiniPBCoderC2EPKNS_8MMBufferEPNS_8AESCryptE",
            "__ZN4mmkv14CodedInputData9readInt64Ev",
            "__ZN4mmkv19KeyValueHolderCrypt17testAESToMMBufferEv",
            "__ZN4mmkv8MMBufferC2EOS0_",
            "__ZN4mmkv4MMKV23restoreOneFromDirectoryERKNSt3__112basic_stringIcNS1_11char_traitsIcEENS1_9allocatorIcEEEES9_PS8_",
            "__ZN7openssl10MD5_UpdateEPNS_11MD5state_stEPKvm",
            "__ZN4mmkv4MMKV23oldStyleWriteActualSizeEm",
            "__ZN4mmkv14CodedInputData9readInt32Ev",
            "__ZN4mmkv8MMBufferC2EP6NSDataNS_16MMBufferCopyFlagE",
            "__ZN4mmkv4MMKV10mmkvWithIDERKNSt3__112basic_stringIcNS1_11char_traitsIcEENS1_9allocatorIcEEEENS_8MMKVModeEPS7_SB_m",
            "__ZN4mmkv4MMKV23disableCompareBeforeSetEv",
            "__ZN4mmkv4MMKV15try_lock_threadEv",
            "__ZN4mmkv4MMKV20backupOneToDirectoryERKNSt3__112basic_stringIcNS1_11char_traitsIcEENS1_9allocatorIcEEEES9_S9_b",
            "__ZN4mmkv14CodedInputData10readStringERNS_14KeyValueHolderE",
            "__ZN4mmkv10ThreadLock10ThreadOnceEP22_opaque_pthread_once_tPFvvE",
            "__ZN4mmkv4MMKV3setExP8NSStringj",
            "__ZN4mmkv12zeroFillFileEimm",
            "__ZN4mmkv13crcPathWithIDERKNSt3__112basic_stringIcNS0_11char_traitsIcEENS0_9allocatorIcEEEENS_8MMKVModeEPS7_",
            "__ZN4mmkv4MMKV9getObjectEP8NSStringP10objc_class",
            "__ZN4mmkv19CodedInputDataCrypt9readInt32Ev",
            "__ZN4mmkv8AESCrypt12fillRandomIVEPv",
            "__ZN4mmkv14CodedInputData10readDoubleEv",
            "__ZN4mmkv19KeyValueHolderCryptC2EOS0_",
            "__ZN4mmkv11MiniPBCoder18writePreparedItemsEm",
            "__ZN4mmkv11MiniPBCoder15writeRootObjectEv",
            "__ZN4mmkv8AESCryptC1ERKS0_RKNS_14AESCryptStatusE",
            "__ZN4mmkv4MMKV20notifyContentChangedEv",
            "__ZN4mmkv15tryAtomicRenameEPKcS1_",
            "__ZN4mmkv11MiniPBCoder22prepareObjectForEncodeEP8NSObject",
            "__ZN4mmkv8AESCrypt12getCurStatusERNS_14AESCryptStatusE",
            "__ZN4mmkv11getPageSizeEv",
            "__ZN4mmkv4File5closeEv",
            "__ZN4mmkv4MMKV17appendDataWithKeyERKNS_8MMBufferEP8NSStringb",
            "__ZN4mmkv4MMKV3setEjP8NSString",
            "__ZN4mmkv19KeyValueHolderCryptD2Ev",
            "__ZN4mmkv4MMKV22unRegisterErrorHandlerEv",
            "__ZN4mmkv8MMBufferD2Ev",
            "__ZN4mmkv14CodedInputData8readBoolEv",
            "__ZN4mmkv10ThreadLockD2Ev",
            "__ZN4mmkv11MiniPBCoder9decodeMapERNSt3__113unordered_mapIP8NSStringNS_14KeyValueHolderENS_9KeyHasherENS_10KeyEqualerENS1_9allocatorINS1_4pairIKS4_S5_EEEEEERKNS_8MMBufferEm",
            "__ZN4mmkv4MMKV19partialLoadFromFileEv",
            "__ZN4mmkv15CodedOutputData22writeRawLittleEndian32Ei",
            "__ZN4mmkv4MMKV7getBoolEP8NSStringbPb",
            "__ZN4mmkv4MMKV11setLogLevelENS_12MMKVLogLevelE",
            "__ZN7openssl18AES_cfb128_decryptEPKhPhmPKNS_7AES_KEYES2_Pj",
            "__ZN4mmkv4MMKV14initializeMMKVERKNSt3__112basic_stringIcNS1_11char_traitsIcEENS1_9allocatorIcEEEENS_12MMKVLogLevelEPFvSA_PKciSC_P8NSStringE",
            "__ZN4mmkv11MiniPBCoder12decodeObjectERKNS_8MMBufferEP10objc_class",
            "__ZN4mmkv8filenameERKNSt3__112basic_stringIcNS0_11char_traitsIcEENS0_9allocatorIcEEEE",
            "__ZN4mmkv8FileLock12platformLockENS_8LockTypeEbbPb",
            "__ZN4mmkv8AESCryptD1Ev",
            "__ZN4mmkv4MMKV19overrideDataWithKeyERKNS_8MMBufferEP8NSStringRKNS_19KeyValueHolderCryptEb",
            "__ZN4mmkv14CodedInputData10readNSDataEv",
            "__ZN4mmkv4MMKVD1Ev",
            "__ZN4mmkv10MemoryFile8truncateEm",
            "__ZN4mmkv14CodedInputData10readUInt64Ev",
            "__ZN4mmkv11MiniPBCoder20encodeDataWithObjectERKNS_8MMBufferE",
            "__ZN4mmkv11MiniPBCoder12decodeOneMapERNSt3__113unordered_mapIP8NSStringNS_19KeyValueHolderCryptENS_9KeyHasherENS_10KeyEqualerENS1_9allocatorINS1_4pairIKS4_S5_EEEEEEmb",
            "__ZN4mmkv4MMKV11isFileValidERKNSt3__112basic_stringIcNS1_11char_traitsIcEENS1_9allocatorIcEEEEPS7_",
            "__ZN4mmkv8FileLock6doLockENS_8LockTypeEbPb",
            "__ZN4mmkv15CodedOutputData11writeDoubleEd",
            "__ZN4mmkv14CodedInputData9readFloatEv",
            "__ZN4mmkv4MMKV3setEjP8NSStringj",
            "__ZN4mmkv8AESCrypt20randomItemSizeHolderEj",
            "__ZN4mmkv15copyFileContentERKNSt3__112basic_stringIcNS0_11char_traitsIcEENS0_9allocatorIcEEEEi",
            "__ZN4mmkv11getFileSizeEiRm",
            "__ZN4mmkv19CodedInputDataCrypt15readRawVarint32Eb",
            "__ZN4mmkv4MMKV16clearMemoryCacheEb",
            "__ZN4mmkv8MMBufferC1EOS0_",
            "__ZN4mmkv10MemoryFileC2ENSt3__112basic_stringIcNS1_11char_traitsIcEENS1_9allocatorIcEEEEmb",
            "__ZN4mmkv15CodedOutputData15curWritePointerEv",
            "__ZN4mmkv15CodedOutputData16writeRawVarint32Ei",
            "__ZN4mmkv19KeyValueHolderCryptC1Ejjj",
            "__ZN4mmkv14CodedInputData10readStringEv",
            "__ZN4mmkv4MMKV20loadMetaInfoAndCheckEv",
            "__ZN4mmkv4MMKVD2Ev",
            "__ZN4mmkv4MMKV13getDataForKeyEP8NSString",
            "__ZN4mmkv4MMKV4syncENS_8SyncFlagE",
            "__ZN4mmkv15CodedOutputData22writeRawLittleEndian64Ex",
            "__ZN4mmkv4MMKV9getUInt32EP8NSStringjPb",
            "__ZN4mmkv4MMKV3setEyP8NSString",
            "__ZN4mmkv4MMKV17appendDataWithKeyERKNS_8MMBufferERKNS_14KeyValueHolderEb",
            "__ZN4mmkv15CodedOutputData10writeFloatEf",
            "__ZN4mmkv15CodedOutputData5resetEv",
            "__ZN4mmkv4MMKV22getCurrentTimeInSecondEv",
            "__ZN4mmkv8AESCrypt12testAESCryptEv",
            "__ZN4mmkv4File4openEv",
            "__ZN4mmkv8FileLock6unlockENS_8LockTypeE",
            "__ZN4mmkv4MMKV12getValueSizeEP8NSStringb",
            "__ZN4mmkv4MMKV11defaultMMKVENS_8MMKVModeEPNSt3__112basic_stringIcNS2_11char_traitsIcEENS2_9allocatorIcEEEE",
            "__ZN4mmkv4MMKV17setIsInBackgroundEb",
            "__ZN4mmkv4MMKV7allKeysEb",
            "__ZN4mmkv4MMKV8try_lockEv",
            "__ZN4mmkv18mappedKVPathWithIDERKNSt3__112basic_stringIcNS0_11char_traitsIcEENS0_9allocatorIcEEEENS_8MMKVModeEPS7_",
            "__ZN4mmkv19CodedInputDataCrypt10readStringERNS_19KeyValueHolderCryptE",
            "__ZN4mmkv22tryResetFileProtectionERKNSt3__112basic_stringIcNS0_11char_traitsIcEENS0_9allocatorIcEEEE",
            "__ZN4mmkv4MMKV19overrideDataWithKeyERKNS_8MMBufferERKNS_14KeyValueHolderEb",
            "__ZN4mmkv4MMKVC2ERKNSt3__112basic_stringIcNS1_11char_traitsIcEENS1_9allocatorIcEEEENS_8MMKVModeEPS7_SB_m",
            "__ZN4mmkv4MMKV16getRawDataForKeyEP8NSString",
            "__ZN4mmkv4MMKV15updateCRCDigestEPKhm",
            "__ZNK4mmkv14KeyValueHolder10toMMBufferEPKv",
            "__ZN4mmkv4MMKV25getDataWithoutMTimeForKeyEP8NSString",
            "__ZN4mmkv4MMKV3setEyP8NSStringj",
            "__ZN4mmkv8MLockPtrC2EPvm",
            "__ZN4mmkv4MMKV17appendDataWithKeyERKNS_8MMBufferEP8NSStringRKNS_19KeyValueHolderCryptEb",
            "__ZN4mmkv8AESCrypt7encryptEPKvPvm",
            "__ZN4mmkv4MMKV24recalculateCRCDigestOnlyEv",
            "__ZN4mmkv4MMKV3setEdP8NSStringj",
            "__ZN4mmkv15CodedOutputData11getPositionEv",
            "__ZN4mmkv4MMKV16ensureMemorySizeEm",
            "__ZNK4mmkv8MMBuffereqERKS0_",
            "__ZN4mmkv19KeyValueHolderCryptaSEOS0_",
            "__ZN4mmkv4MMKVC1ERKNSt3__112basic_stringIcNS1_11char_traitsIcEENS1_9allocatorIcEEEENS_8MMKVModeEPS7_SB_m",
            "__ZN4mmkv8MMBufferC1Em",
            "__ZNK4mmkv4File17getActualFileSizeEv",
            "__ZN4mmkv15CodedOutputData12writeRawByteEh",
            "__ZN4mmkv4MMKV18writeValueToBufferEP8NSStringPvi",
            "__ZN4mmkv4MMKV15writeActualSizeEmjPKvb",
            "__ZN4mmkv8MLockPtrC1EPvm",
            "__ZN4mmkv4MMKV23restoreOneFromDirectoryERKNSt3__112basic_stringIcNS1_11char_traitsIcEENS1_9allocatorIcEEEES9_S9_b",
            "__ZN4mmkv4MMKV8getFloatEP8NSStringfPb",
            "__ZN4mmkv4MMKV3setEPU18objcproto8NSCoding8NSObjectP8NSString",
            "__ZN4mmkv4MMKV26recalculateCRCDigestWithIVEPKv",
            "__ZN4mmkv8MMBuffer6detachEv",
            "__ZN4mmkv15CodedOutputData11writeUInt64Ey",
            "__ZN4mmkv4MMKV17checkFileCRCValidEmj",
            "__ZN4mmkv4MMKV13removeStorageERKNSt3__112basic_stringIcNS1_11char_traitsIcEENS1_9allocatorIcEEEEPS7_",
            "__ZN4mmkv4MMKV14isInBackgroundEv",
            "__ZN4mmkv8copyFileERKNSt3__112basic_stringIcNS0_11char_traitsIcEENS0_9allocatorIcEEEES8_",
            "__ZN4mmkv11MiniPBCoder12decodeOneMapERNSt3__113unordered_mapIP8NSStringNS_14KeyValueHolderENS_9KeyHasherENS_10KeyEqualerENS1_9allocatorINS1_4pairIKS4_S5_EEEEEEmb",
            "__ZN4mmkv4MMKV8clearAllEb",
            "__ZN4mmkv15copyFileContentERKNSt3__112basic_stringIcNS0_11char_traitsIcEENS0_9allocatorIcEEEEib",
            "__ZN4mmkv10ThreadLock10initializeEv",
            "__ZN4mmkv9walkInDirERKNSt3__112basic_stringIcNS0_11char_traitsIcEENS0_9allocatorIcEEEENS_8WalkTypeERKNS0_8functionIFvS8_S9_EEE",
            "__ZN4mmkv4MMKV3setEfP8NSStringj",
            "__ZN7openssl18AES_cfb128_encryptEPKhPhmPKNS_7AES_KEYES2_Pj",
            "__ZN4mmkv4MMKV4trimEv",
            "__ZN4mmkv4MMKV23restoreAllFromDirectoryERKNSt3__112basic_stringIcNS1_11char_traitsIcEENS1_9allocatorIcEEEES9_b",
            "__ZN4mmkv14CodedInputData15readRawVarint32Ev",
            "__ZN4mmkv4MMKV11isFileValidEv",
            "__ZN4mmkv4MMKV13unlock_threadEv",
            "__ZN4mmkv19KeyValueHolderCryptC1EONS_8MMBufferE",
            "__ZN4mmkv11MiniPBCoderC2Ev",
            "__ZN4mmkv4MMKV9getDoubleEP8NSStringdPb",
            "__ZN4mmkv4MMKV8getInt32EP8NSStringiPb",
            "__ZN4mmkv19KeyValueHolderCryptD1Ev",
            "__ZN4mmkv4MMKV3setEbP8NSStringj",
            "__ZN4mmkv19KeyValueHolderCryptC1EOS0_",
            "__ZN4mmkv10ThreadLock8try_lockEv",
            "__ZN4mmkv15CodedOutputDataC2EPvm",
            "__ZN4mmkv4MMKV28registerContentChangeHandlerEPFvRKNSt3__112basic_stringIcNS1_11char_traitsIcEENS1_9allocatorIcEEEEE",
            "__ZN4mmkv19CodedInputDataCrypt11readRawByteEv",
            "_openssl_aes_arm_encrypt",
            "__ZN4mmkv4MMKV13setDataForKeyEONS_8MMBufferEP8NSStringb",
            "__ZN4mmkv4MMKV20checkSizeForOverrideEm",
            "__ZN4mmkv8MLockPtrD2Ev",
            "__ZN4mmkv4MMKV5closeEv",
            "__ZN4mmkv14CodedInputData8readDataERNS_14KeyValueHolderE",
            "__ZN7openssl20md5_block_data_orderEPNS_11MD5state_stEPKvm",
            "__ZN4mmkv15CodedOutputData9spaceLeftEv",
            "__ZN4mmkv4MMKV17removeValueForKeyEP8NSString",
            "__ZN4mmkv8AESCryptC2ERKS0_RKNS_14AESCryptStatusE",
            "__Z17_MMKVLogWithLevelN4mmkv12MMKVLogLevelEPKcS2_iS2_z",
            "__ZN4mmkv8AESCrypt7resetIVEPKvm",
            "__ZNK4mmkv4MMKV8cryptKeyEv",
            "__ZN4mmkv10ThreadLock4lockEv",
            "__ZN4mmkv4MMKV13fullWritebackEPNS_8AESCryptEb",
            "__ZN4mmkv11MiniPBCoder22prepareObjectForEncodeERKNSt3__16vectorINS1_4pairIP8NSStringNS_8MMBufferEEENS1_9allocatorIS7_EEEE",
            "__ZN7openssl8MD5_InitEPNS_11MD5state_stE",
            "__ZNK4mmkv8AESCrypt15cloneWithStatusERKNS_14AESCryptStatusE",
            "__ZN4mmkv10MemoryFileC1ENSt3__112basic_stringIcNS1_11char_traitsIcEENS1_9allocatorIcEEEEmb",
            "__ZN4mmkv4MMKV11lock_threadEv",
            "__ZN4mmkv10MemoryFile14reloadFromFileEm",
            "__ZN4mmkv14CodedInputDataC2EPKvm",
            "__ZN4mmkv4MMKV21doOverrideDataWithKeyERKNS_8MMBufferES3_bj",
            "__ZN4mmkv19KeyValueHolderCryptC2Ejjj",
            "__ZN4mmkv8MMBufferD1Ev",
            "__ZN4mmkv6mkPathERKNSt3__112basic_stringIcNS0_11char_traitsIcEENS0_9allocatorIcEEEE",
            "__ZN4mmkv4MMKV13checkLoadDataEv",
            "__ZN4mmkv4MMKV3setExP8NSString",
            "__ZN4mmkv19CodedInputDataCryptC2EPKvmRNS_8AESCryptE",
            "__ZN4mmkv11MiniPBCoder17isCompatibleClassEP10objc_class",
            "__ZN4mmkv19GetAppleMachineInfoERiS0_",
            "__ZN4mmkv8AESCrypt7decryptEPKvPvm",
            "__ZN4mmkv8MLockPtrD1Ev",
            "__ZN4mmkv19CodedInputDataCrypt4seekEm",
            "__ZN4mmkv8MMBufferC1EOS0_m",
            "__ZN7openssl3MD5EPKhmPh",
            "__ZN4mmkv4MMKV15doFullWriteBackEONSt3__16vectorINS1_4pairIP8NSStringNS_8MMBufferEEENS1_9allocatorIS7_EEEE",
            "__ZN4mmkv15CodedOutputData11setPositionEm",
            "__ZN4mmkv4MMKV15doFullWriteBackENSt3__14pairINS_8MMBufferEmEEPNS_8AESCryptEb",
            "__ZN4mmkv8AESCryptD2Ev",
            "__ZN4mmkv10MemoryFile4mmapEv",
            "__ZN4mmkv10initializeEv",
            "__ZN4mmkv4MMKV10actualSizeEv",
            "__ZN4mmkv10ThreadLock6unlockEv",
            "__ZN4mmkv4FileC2ENSt3__112basic_stringIcNS1_11char_traitsIcEENS1_9allocatorIcEEEENS_8OpenFlagE",
            "__ZN4mmkv4MMKV13enumerateKeysEU13block_pointerFvP8NSStringPbE",
            "__ZN4mmkv15CodedOutputData16writeRawVarint64Ex",
            "__ZN4mmkv14CodedInputData11readRawByteEv",
            "__ZN4mmkv8MMBufferaSEOS0_",
            "__ZN4mmkv13readWholeFileERKNSt3__112basic_stringIcNS0_11char_traitsIcEENS0_9allocatorIcEEEE",
            "__ZN4mmkv19CodedInputDataCrypt12consumeBytesEmb",
            "__ZN4mmkv11MiniPBCoder22prepareObjectForEncodeERKNS_8MMBufferE",
            "__ZN4mmkv4MMKV19doAppendDataWithKeyERKNS_8MMBufferES3_bj",
            "__ZN4mmkv4MMKV9totalSizeEv",
            "__ZN4mmkv11MiniPBCoder15greedyDecodeMapERNSt3__113unordered_mapIP8NSStringNS_14KeyValueHolderENS_9KeyHasherENS_10KeyEqualerENS1_9allocatorINS1_4pairIKS4_S5_EEEEEERKNS_8MMBufferEm",
            "__ZN4mmkv11MiniPBCoderC1Ev",
            "__ZN4mmkv21onMMKVFileLengthErrorERKNSt3__112basic_stringIcNS0_11char_traitsIcEENS0_9allocatorIcEEEE",
            "__ZN4mmkv14CodedInputData12readRealDataERNS_8MMBufferE",
            "__ZN4mmkv4MMKV16removeDataForKeyEP8NSString",
            "__ZN4mmkv8FileLock14platformUnLockEb",
            "__ZN4mmkv15CodedOutputData4seekEm",
            "__ZN4mmkv4MMKV18checkReSetCryptKeyEPKNSt3__112basic_stringIcNS1_11char_traitsIcEENS1_9allocatorIcEEEE",
            "__ZN4mmkv19CodedInputDataCryptD1Ev",
            "__ZN4mmkv4MMKV19getExpireTimeForKeyEP8NSString",
            "__ZN4mmkv8MMBufferC2EPvmNS_16MMBufferCopyFlagE",
            "__ZN4mmkv4MMKV10getRootDirEv",
            "__ZN4mmkv4MMKV3setEPU18objcproto8NSCoding8NSObjectP8NSStringj",
            "__ZN4mmkv4MMKV19checkContentChangedEv",
            "__ZN4mmkv15CodedOutputData9writeDataERKNS_8MMBufferE",
            "__ZN4mmkv4MMKV30unRegisterContentChangeHandlerEv",
            "__ZN4mmkv8MMBufferC1EP6NSDataNS_16MMBufferCopyFlagE",
            "__ZN4mmkv8endsWithERKNSt3__112basic_stringIcNS0_11char_traitsIcEENS0_9allocatorIcEEEES8_",
            "__ZN4mmkv17pbRawVarint32SizeEj",
            "__ZN4mmkv4MMKV19overrideDataWithKeyERKNS_8MMBufferEP8NSStringb",
            "__ZN4mmkv4MMKV20backupOneToDirectoryERKNSt3__112basic_stringIcNS1_11char_traitsIcEENS1_9allocatorIcEEEES9_PS8_",
            "__ZN4mmkv14CodedInputData21readRawLittleEndian32Ev",
            "__ZN4mmkv14CodedInputData8readDataEbb",
            "__ZN4mmkv11isFileExistERKNSt3__112basic_stringIcNS0_11char_traitsIcEENS0_9allocatorIcEEEE",
            "__ZN4mmkv4MMKV18registerLogHandlerEPFvNS_12MMKVLogLevelEPKciS3_P8NSStringE",
            "__ZN4mmkv4MMKV19removeValuesForKeysEP7NSArray",
            "__ZN4mmkv19CodedInputDataCryptC1EPKvmRNS_8AESCryptE",
            "__ZN4mmkv11MiniPBCoderD1Ev",
            "__ZN4mmkv4MMKV20backupAllToDirectoryERKNSt3__112basic_stringIcNS1_11char_traitsIcEENS1_9allocatorIcEEEES9_b",
            "__ZN4mmkv8AESCryptC2EPKvmS2_m",
            "__ZN4mmkv25guardForBackgroundWritingEPvm",
            "__ZN4mmkv4MMKV6onExitEv",
            "__ZN4mmkv4MMKV5countEb",
            "__ZN4mmkv8MMBufferC2Em",
            "_openssl_aes_arm_decrypt",
            "__ZN4mmkv12pbUInt64SizeEy",
            "__ZN4mmkv11mmapedKVKeyERKNSt3__112basic_stringIcNS0_11char_traitsIcEENS0_9allocatorIcEEEEPS7_",
            "__ZN4mmkv11MiniPBCoderC1EPKNS_8MMBufferEPNS_8AESCryptE",
            "__ZN4mmkv19KeyValueHolderCryptC2EONS_8MMBufferE",
            "__ZN4mmkv4MMKV14readActualSizeEv",
            "__ZN4mmkv4MMKV8getInt64EP8NSStringxPb",
            "__ZN4mmkv4MMKV20unRegisterLogHandlerEv",
            "__ZN4mmkv15CodedOutputData9writeBoolEb",
            "__ZN4mmkv14KeyValueHolderC2Ejjj",
            "__ZN4mmkv15CodedOutputDataC1EPvm",
            "__ZN4mmkv19CodedInputDataCryptD2Ev",
            "__ZN4mmkv4FileC1ENSt3__112basic_stringIcNS1_11char_traitsIcEENS1_9allocatorIcEEEENS_8OpenFlagE",
            "__ZN4mmkv4MMKV4lockEv",
            "__ZN4mmkv8AESCryptC1EPKvmS2_m",
            "__ZN4mmkv10ThreadLockD1Ev",
            "__ZN4mmkv15CodedOutputData12writeRawDataERKNS_8MMBufferE",
            "__ZN4mmkv4MMKV5reKeyERKNSt3__112basic_stringIcNS1_11char_traitsIcEENS1_9allocatorIcEEEE",
            "__ZN4mmkv4MMKV17filterExpiredKeysEv",
            "__ZNK4mmkv19KeyValueHolderCrypt10toMMBufferEPKvPKNS_8AESCryptE",
            "__ZN4mmkv14CodedInputData21readRawLittleEndian64Ev",
            "__ZN4mmkv14CodedInputData4seekEm",
            "__ZN4mmkv14CodedInputDataC1EPKvm",
            "__ZN4mmkv4MMKV3setEbP8NSString",
            "__ZNK4mmkv8AESCrypt6getKeyEPv",
            "__ZNK4mmkv19KeyValueHolderCrypt13realValueSizeEv",
            "__ZN4mmkv4MMKV3setEfP8NSString",
            "__ZN4mmkv14CodedInputData10readUInt32Ev",
            "__ZN4mmkv8MMBufferC1EPvmNS_16MMBufferCopyFlagE",
            "__ZN4mmkv4MMKV18expandAndWriteBackEmNSt3__14pairINS_8MMBufferEmEEb",
            "__ZN4mmkv19KeyValueHolderCrypt4moveEOS0_",
            "__ZN4mmkv18onMMKVCRCCheckFailERKNSt3__112basic_stringIcNS0_11char_traitsIcEENS0_9allocatorIcEEEE",
            "__ZN4mmkv11MiniPBCoder15greedyDecodeMapERNSt3__113unordered_mapIP8NSStringNS_19KeyValueHolderCryptENS_9KeyHasherENS_10KeyEqualerENS1_9allocatorINS1_4pairIKS4_S5_EEEEEERKNS_8MMBufferEPNS_8AESCryptEm",
            "__ZN4mmkv15CodedOutputData10writeInt32Ei",
            "__ZN4mmkv19CodedInputDataCrypt8readDataERNS_19KeyValueHolderCryptE",
            "__ZN4mmkv4MMKV14checkDataValidERbS1_",
            "__ZN4mmkv4MMKV3setEdP8NSString",
            "__ZN4mmkv10ThreadLockC1Ev",
            "__ZN4mmkv4MMKV12loadFromFileEv",
            "__ZNK4mmkv4MMKV6mmapIDEv",
            "__ZN4mmkv4MMKV20disableAutoKeyExpireEv",
            "__ZN4mmkv11MiniPBCoder9decodeMapERNSt3__113unordered_mapIP8NSStringNS_19KeyValueHolderCryptENS_9KeyHasherENS_10KeyEqualerENS1_9allocatorINS1_4pairIKS4_S5_EEEEEERKNS_8MMBufferEPNS_8AESCryptEm",
            "__ZN4mmkv8AESCrypt19statusBeforeDecryptEPKvS2_mRNS_14AESCryptStatusE",
            "__ZN7openssl9MD5_FinalEPhPNS_11MD5state_stE",
            "__ZN4mmkv8FileLock8try_lockENS_8LockTypeEPb",
            "__ZN4mmkv11MiniPBCoderD2Ev",
            "__ZN4mmkv4MMKV6unlockEv",
            "__ZN4mmkv4MMKV3setEiP8NSStringj",
            "_openssl_aes_arm_set_decrypt_key",
            "_openssl_aes_arm_set_encrypt_key",
            "__ZN4mmkv4MMKV19enableAutoKeyExpireEj",
            "__ZN4mmkv8MLockPtrC2EOS0_",
            "__ZN4mmkv10MemoryFile18doCleanMemoryCacheEb",
            "__ZN4mmkv21testRandomPlaceHolderEv"
          ],
          "weak": [
            "__ZNSt3__112__hash_tableINS_17__hash_value_typeIP8NSStringN4mmkv14KeyValueHolderEEENS_22__unordered_map_hasherIS3_S6_NS4_9KeyHasherENS4_10KeyEqualerELb1EEENS_21__unordered_map_equalIS3_S6_S9_S8_Lb1EEENS_9allocatorIS6_EEE25__emplace_unique_key_argsIS3_JRKS3_S5_EEENS_4pairINS_15__hash_iteratorIPNS_11__hash_nodeIS6_PvEEEEbEERKT_DpOT0_",
            "__ZNSt3__112__hash_tableINS_17__hash_value_typeIP8NSStringN4mmkv19KeyValueHolderCryptEEENS_22__unordered_map_hasherIS3_S6_NS4_9KeyHasherENS4_10KeyEqualerELb1EEENS_21__unordered_map_equalIS3_S6_S9_S8_Lb1EEENS_9allocatorIS6_EEE4findIS3_EENS_15__hash_iteratorIPNS_11__hash_nodeIS6_PvEEEERKT_",
            "__ZNSt3__112__hash_tableINS_17__hash_value_typeIP8NSStringN4mmkv14KeyValueHolderEEENS_22__unordered_map_hasherIS3_S6_NS4_9KeyHasherENS4_10KeyEqualerELb1EEENS_21__unordered_map_equalIS3_S6_S9_S8_Lb1EEENS_9allocatorIS6_EEE11__do_rehashILb1EEEvm",
            "__ZNSt3__112__hash_tableINS_17__hash_value_typeIP8NSStringN4mmkv14KeyValueHolderEEENS_22__unordered_map_hasherIS3_S6_NS4_9KeyHasherENS4_10KeyEqualerELb1EEENS_21__unordered_map_equalIS3_S6_S9_S8_Lb1EEENS_9allocatorIS6_EEE21__construct_node_hashIRS3_JS5_EEENS_10unique_ptrINS_11__hash_nodeIS6_PvEENS_22__hash_node_destructorINSD_ISL_EEEEEEmOT_DpOT0_",
            "__ZNSt3__112__hash_tableINS_17__hash_value_typeINS_12basic_stringIcNS_11char_traitsIcEENS_9allocatorIcEEEEPN4mmkv4MMKVEEENS_22__unordered_map_hasherIS7_SB_NS_4hashIS7_EENS_8equal_toIS7_EELb1EEENS_21__unordered_map_equalIS7_SB_SG_SE_Lb1EEENS5_ISB_EEE25__emplace_unique_key_argsIS7_JRKNS_21piecewise_construct_tENS_5tupleIJRKS7_EEENSQ_IJEEEEEENS_4pairINS_15__hash_iteratorIPNS_11__hash_nodeISB_PvEEEEbEERKT_DpOT0_",
            "__ZNSt3__112__hash_tableINS_17__hash_value_typeIP8NSStringN4mmkv14KeyValueHolderEEENS_22__unordered_map_hasherIS3_S6_NS4_9KeyHasherENS4_10KeyEqualerELb1EEENS_21__unordered_map_equalIS3_S6_S9_S8_Lb1EEENS_9allocatorIS6_EEE4findIS3_EENS_15__hash_iteratorIPNS_11__hash_nodeIS6_PvEEEERKT_",
            "__ZN4mmkv15clearDictionaryINSt3__113unordered_mapIP8NSStringNS_19KeyValueHolderCryptENS_9KeyHasherENS_10KeyEqualerENS1_9allocatorINS1_4pairIKS4_S5_EEEEEEEEvPT_",
            "__ZNSt3__112__hash_tableINS_17__hash_value_typeIP8NSStringN4mmkv19KeyValueHolderCryptEEENS_22__unordered_map_hasherIS3_S6_NS4_9KeyHasherENS4_10KeyEqualerELb1EEENS_21__unordered_map_equalIS3_S6_S9_S8_Lb1EEENS_9allocatorIS6_EEE25__emplace_unique_key_argsIS3_JRS3_S5_EEENS_4pairINS_15__hash_iteratorIPNS_11__hash_nodeIS6_PvEEEEbEERKT_DpOT0_",
            "__ZNSt3__112__hash_tableINS_17__hash_value_typeIP8NSStringN4mmkv14KeyValueHolderEEENS_22__unordered_map_hasherIS3_S6_NS4_9KeyHasherENS4_10KeyEqualerELb1EEENS_21__unordered_map_equalIS3_S6_S9_S8_Lb1EEENS_9allocatorIS6_EEE25__emplace_unique_key_argsIS3_JRS3_S5_EEENS_4pairINS_15__hash_iteratorIPNS_11__hash_nodeIS6_PvEEEEbEERKT_DpOT0_",
            "__ZNSt3__112__hash_tableINS_17__hash_value_typeIP8NSStringN4mmkv14KeyValueHolderEEENS_22__unordered_map_hasherIS3_S6_NS4_9KeyHasherENS4_10KeyEqualerELb1EEENS_21__unordered_map_equalIS3_S6_S9_S8_Lb1EEENS_9allocatorIS6_EEE21__construct_node_hashIRKS3_JS5_EEENS_10unique_ptrINS_11__hash_nodeIS6_PvEENS_22__hash_node_destructorINSD_ISM_EEEEEEmOT_DpOT0_",
            "__ZNSt3__112__hash_tableINS_17__hash_value_typeIP8NSStringN4mmkv19KeyValueHolderCryptEEENS_22__unordered_map_hasherIS3_S6_NS4_9KeyHasherENS4_10KeyEqualerELb1EEENS_21__unordered_map_equalIS3_S6_S9_S8_Lb1EEENS_9allocatorIS6_EEE8__rehashILb1EEEvm",
            "__ZNSt3__112__hash_tableINS_12basic_stringIcNS_11char_traitsIcEENS_9allocatorIcEEEENS_4hashIS6_EENS_8equal_toIS6_EENS4_IS6_EEE25__emplace_unique_key_argsIS6_JRKS6_EEENS_4pairINS_15__hash_iteratorIPNS_11__hash_nodeIS6_PvEEEEbEERKT_DpOT0_",
            "__ZNSt3__112__hash_tableINS_17__hash_value_typeIP8NSStringN4mmkv19KeyValueHolderCryptEEENS_22__unordered_map_hasherIS3_S6_NS4_9KeyHasherENS4_10KeyEqualerELb1EEENS_21__unordered_map_equalIS3_S6_S9_S8_Lb1EEENS_9allocatorIS6_EEE21__construct_node_hashIRS3_JS5_EEENS_10unique_ptrINS_11__hash_nodeIS6_PvEENS_22__hash_node_destructorINSD_ISL_EEEEEEmOT_DpOT0_",
            "__ZNSt3__112__hash_tableINS_17__hash_value_typeIP8NSStringN4mmkv19KeyValueHolderCryptEEENS_22__unordered_map_hasherIS3_S6_NS4_9KeyHasherENS4_10KeyEqualerELb1EEENS_21__unordered_map_equalIS3_S6_S9_S8_Lb1EEENS_9allocatorIS6_EEE11__do_rehashILb1EEEvm",
            "__ZN4mmkv15clearDictionaryINSt3__113unordered_mapIP8NSStringNS_14KeyValueHolderENS_9KeyHasherENS_10KeyEqualerENS1_9allocatorINS1_4pairIKS4_S5_EEEEEEEEvPT_",
            "__ZNSt3__112__hash_tableINS_12basic_stringIcNS_11char_traitsIcEENS_9allocatorIcEEEENS_4hashIS6_EENS_8equal_toIS6_EENS4_IS6_EEE21__construct_node_hashIRKS6_JEEENS_10unique_ptrINS_11__hash_nodeIS6_PvEENS_22__hash_node_destructorINS4_ISJ_EEEEEEmOT_DpOT0_",
            "__ZNSt3__112__hash_tableINS_17__hash_value_typeIP8NSStringN4mmkv19KeyValueHolderCryptEEENS_22__unordered_map_hasherIS3_S6_NS4_9KeyHasherENS4_10KeyEqualerELb1EEENS_21__unordered_map_equalIS3_S6_S9_S8_Lb1EEENS_9allocatorIS6_EEE25__emplace_unique_key_argsIS3_JRKS3_S5_EEENS_4pairINS_15__hash_iteratorIPNS_11__hash_nodeIS6_PvEEEEbEERKT_DpOT0_",
            "__ZNSt3__112__hash_tableINS_17__hash_value_typeINS_12basic_stringIcNS_11char_traitsIcEENS_9allocatorIcEEEEPN4mmkv4MMKVEEENS_22__unordered_map_hasherIS7_SB_NS_4hashIS7_EENS_8equal_toIS7_EELb1EEENS_21__unordered_map_equalIS7_SB_SG_SE_Lb1EEENS5_ISB_EEE21__construct_node_hashIRKNS_21piecewise_construct_tEJNS_5tupleIJRKS7_EEENSQ_IJEEEEEENS_10unique_ptrINS_11__hash_nodeISB_PvEENS_22__hash_node_destructorINS5_ISY_EEEEEEmOT_DpOT0_",
            "__ZNSt3__112__hash_tableINS_17__hash_value_typeINS_12basic_stringIcNS_11char_traitsIcEENS_9allocatorIcEEEEPN4mmkv4MMKVEEENS_22__unordered_map_hasherIS7_SB_NS_4hashIS7_EENS_8equal_toIS7_EELb1EEENS_21__unordered_map_equalIS7_SB_SG_SE_Lb1EEENS5_ISB_EEE8__rehashILb1EEEvm",
            "__ZNSt3__112__hash_tableINS_12basic_stringIcNS_11char_traitsIcEENS_9allocatorIcEEEENS_4hashIS6_EENS_8equal_toIS6_EENS4_IS6_EEE8__rehashILb1EEEvm",
            "__ZNSt3__112__hash_tableINS_17__hash_value_typeIP8NSStringN4mmkv14KeyValueHolderEEENS_22__unordered_map_hasherIS3_S6_NS4_9KeyHasherENS4_10KeyEqualerELb1EEENS_21__unordered_map_equalIS3_S6_S9_S8_Lb1EEENS_9allocatorIS6_EEE8__rehashILb1EEEvm",
            "__ZNSt3__112__hash_tableINS_12basic_stringIcNS_11char_traitsIcEENS_9allocatorIcEEEENS_4hashIS6_EENS_8equal_toIS6_EENS4_IS6_EEE11__do_rehashILb1EEEvm",
            "__ZNSt3__112__hash_tableINS_17__hash_value_typeIP8NSStringN4mmkv19KeyValueHolderCryptEEENS_22__unordered_map_hasherIS3_S6_NS4_9KeyHasherENS4_10KeyEqualerELb1EEENS_21__unordered_map_equalIS3_S6_S9_S8_Lb1EEENS_9allocatorIS6_EEE21__construct_node_hashIRKS3_JS5_EEENS_10unique_ptrINS_11__hash_nodeIS6_PvEENS_22__hash_node_destructorINSD_ISM_EEEEEEmOT_DpOT0_",
            "__ZN4mmkv7roundUpImEET_S1_S1_",
            "__ZNSt3__112__hash_tableINS_17__hash_value_typeINS_12basic_stringIcNS_11char_traitsIcEENS_9allocatorIcEEEEPN4mmkv4MMKVEEENS_22__unordered_map_hasherIS7_SB_NS_4hashIS7_EENS_8equal_toIS7_EELb1EEENS_21__unordered_map_equalIS7_SB_SG_SE_Lb1EEENS5_ISB_EEE4findIS7_EENS_15__hash_iteratorIPNS_11__hash_nodeISB_PvEEEERKT_",
            "__ZNSt3__112__hash_tableINS_17__hash_value_typeINS_12basic_stringIcNS_11char_traitsIcEENS_9allocatorIcEEEEPN4mmkv4MMKVEEENS_22__unordered_map_hasherIS7_SB_NS_4hashIS7_EENS_8equal_toIS7_EELb1EEENS_21__unordered_map_equalIS7_SB_SG_SE_Lb1EEENS5_ISB_EEE11__do_rehashILb1EEEvm",
            "__ZNSt3__112__hash_tableINS_12basic_stringIcNS_11char_traitsIcEENS_9allocatorIcEEEENS_4hashIS6_EENS_8equal_toIS6_EENS4_IS6_EEE4findIS6_EENS_15__hash_iteratorIPNS_11__hash_nodeIS6_PvEEEERKT_"
          ]
        }
      }
    ],
    "flags": [
      {
        "attributes": [
          "not_app_extension_safe"
        ]
      }
    ],
    "install_names": [
      {
        "name": "@rpath/MMKVCore.framework/MMKVCore"
      }
    ],
    "target_info": [
      {
        "min_deployment": "14",
        "target": "arm64-ios-simulator"
      }
    ]
  },
  "tapi_tbd_version": 5
}
